target datalayout = "e-m:e-p270:32:32-p271:32:32-p272:64:64-i64:64-i128:128-f80:128-n8:16:32:64-S128"
target triple = "x86_64-pc-linux-gnu"

%struct.evhttp_connection = type { %struct.anon, ptr, %struct.event, ptr, i16, ptr, i16, ptr, i64, i64, i32, %struct.timeval, %struct.timeval, %struct.timeval, i32, i32, %struct.timeval, i32, ptr, %struct.evcon_requestq, ptr, ptr, ptr, ptr, %struct.event_callback, ptr, ptr, i32, ptr }
%struct.anon = type { ptr, ptr }
%struct.event = type { %struct.event_callback, %union.anon.1, i32, i16, i16, ptr, %union.anon.3, %struct.timeval }
%union.anon.1 = type { %struct.anon.2 }
%struct.anon.2 = type { ptr, ptr }
%union.anon.3 = type { %struct.anon.4 }
%struct.anon.4 = type { %struct.anon.5, %struct.timeval }
%struct.anon.5 = type { ptr, ptr }
%struct.timeval = type { i64, i64 }
%struct.evcon_requestq = type { ptr, ptr }
%struct.event_callback = type { %struct.anon.0, i16, i8, i8, %union.anon, ptr }
%struct.anon.0 = type { ptr, ptr }
%union.anon = type { ptr }
%struct.evhttp_request = type { %struct.anon.8, ptr, i32, ptr, ptr, ptr, i16, ptr, i32, i32, i64, i64, ptr, ptr, i8, i8, i32, ptr, ptr, i64, i8, ptr, ptr, ptr, ptr, ptr, ptr, ptr, ptr }
%struct.anon.8 = type { ptr, ptr }

; Function Attrs: inlinehint nounwind uwtable
define internal void @evhttp_request_free_auto(ptr noundef %0) #7 {
  %2 = alloca ptr, align 8
  store ptr %0, ptr %2, align 8
  %3 = load ptr, ptr %2, align 8
  %4 = getelementptr inbounds nuw %struct.evhttp_request, ptr %3, i32 0, i32 2
  %5 = load i32, ptr %4, align 8
  %6 = and i32 %5, 4
  %7 = icmp ne i32 %6, 0
  br i1 %7, label %10, label %8

8:                                                ; preds = %1
  %9 = load ptr, ptr %2, align 8
  call void @evhttp_request_free(ptr noundef %9)
  br label %10

10:                                               ; preds = %8, %1
  ret void
}

; Function Attrs: nounwind uwtable
define internal void @evhttp_connection_start_detectclose(ptr noundef %0) #0 {
  %2 = alloca ptr, align 8
  store ptr %0, ptr %2, align 8
  %3 = load ptr, ptr %2, align 8
  %4 = getelementptr inbounds nuw %struct.evhttp_connection, ptr %3, i32 0, i32 10
  %5 = load i32, ptr %4, align 8
  %6 = or i32 %5, 4
  store i32 %6, ptr %4, align 8
  %7 = load ptr, ptr %2, align 8
  %8 = getelementptr inbounds nuw %struct.evhttp_connection, ptr %7, i32 0, i32 1
  %9 = load ptr, ptr %8, align 8
  %10 = call i32 @bufferevent_enable(ptr noundef %9, i16 noundef signext 2)
  ret void
}

; Function Attrs: nounwind uwtable
define internal i32 @evhttp_connected(ptr noundef %0) #0 {
  %2 = alloca i32, align 4
  %3 = alloca ptr, align 8
  store ptr %0, ptr %3, align 8
  %4 = load ptr, ptr %3, align 8
  %5 = getelementptr inbounds nuw %struct.evhttp_connection, ptr %4, i32 0, i32 17
  %6 = load i32, ptr %5, align 8
  switch i32 %6, label %9 [
    i32 0, label %7
    i32 1, label %7
    i32 2, label %8
    i32 3, label %8
    i32 4, label %8
    i32 5, label %8
    i32 6, label %8
    i32 7, label %8
  ]

7:                                                ; preds = %1, %1
  store i32 0, ptr %2, align 4
  br label %10

8:                                                ; preds = %1, %1, %1, %1, %1, %1
  br label %9

9:                                                ; preds = %1, %8
  store i32 1, ptr %2, align 4
  br label %10

10:                                               ; preds = %9, %7
  %11 = load i32, ptr %2, align 4
  ret i32 %11
}

; Function Attrs: nounwind uwtable
define internal void @evhttp_connection_done(ptr noundef %0) #0 {
  %2 = alloca ptr, align 8
  %3 = alloca ptr, align 8
  %4 = alloca i32, align 4
  %5 = alloca i32, align 4
  %6 = alloca i32, align 4
  store ptr %0, ptr %2, align 8
  call void @llvm.lifetime.start.p0(i64 8, ptr %3) #11
  %7 = load ptr, ptr %2, align 8
  %8 = getelementptr inbounds nuw %struct.evhttp_connection, ptr %7, i32 0, i32 19
  %9 = getelementptr inbounds nuw %struct.evcon_requestq, ptr %8, i32 0, i32 0
  %10 = load ptr, ptr %9, align 8
  store ptr %10, ptr %3, align 8
  call void @llvm.lifetime.start.p0(i64 4, ptr %4) #11
  %11 = load ptr, ptr %2, align 8
  %12 = getelementptr inbounds nuw %struct.evhttp_connection, ptr %11, i32 0, i32 10
  %13 = load i32, ptr %12, align 8
  %14 = and i32 %13, 2
  store i32 %14, ptr %4, align 4
  call void @llvm.lifetime.start.p0(i64 4, ptr %5) #11
  store i32 0, ptr %5, align 4
  %15 = load i32, ptr %4, align 4
  %16 = icmp ne i32 %15, 0
  br i1 %16, label %17, label %95

17:                                               ; preds = %1
  call void @llvm.lifetime.start.p0(i64 4, ptr %6) #11
  %18 = load ptr, ptr %3, align 8
  %19 = call i32 @evhttp_is_request_connection_close(ptr noundef %18)
  store i32 %19, ptr %6, align 4
  br label %20

20:                                               ; preds = %17
  %21 = load ptr, ptr %3, align 8
  %22 = getelementptr inbounds nuw %struct.evhttp_request, ptr %21, i32 0, i32 0
  %23 = getelementptr inbounds nuw %struct.anon.8, ptr %22, i32 0, i32 0
  %24 = load ptr, ptr %23, align 8
  %25 = icmp ne ptr %24, null
  br i1 %25, label %26, label %37

26:                                               ; preds = %20
  %27 = load ptr, ptr %3, align 8
  %28 = getelementptr inbounds nuw %struct.evhttp_request, ptr %27, i32 0, i32 0
  %29 = getelementptr inbounds nuw %struct.anon.8, ptr %28, i32 0, i32 1
  %30 = load ptr, ptr %29, align 8
  %31 = load ptr, ptr %3, align 8
  %32 = getelementptr inbounds nuw %struct.evhttp_request, ptr %31, i32 0, i32 0
  %33 = getelementptr inbounds nuw %struct.anon.8, ptr %32, i32 0, i32 0
  %34 = load ptr, ptr %33, align 8
  %35 = getelementptr inbounds nuw %struct.evhttp_request, ptr %34, i32 0, i32 0
  %36 = getelementptr inbounds nuw %struct.anon.8, ptr %35, i32 0, i32 1
  store ptr %30, ptr %36, align 8
  br label %45

37:                                               ; preds = %20
  %38 = load ptr, ptr %3, align 8
  %39 = getelementptr inbounds nuw %struct.evhttp_request, ptr %38, i32 0, i32 0
  %40 = getelementptr inbounds nuw %struct.anon.8, ptr %39, i32 0, i32 1
  %41 = load ptr, ptr %40, align 8
  %42 = load ptr, ptr %2, align 8
  %43 = getelementptr inbounds nuw %struct.evhttp_connection, ptr %42, i32 0, i32 19
  %44 = getelementptr inbounds nuw %struct.evcon_requestq, ptr %43, i32 0, i32 1
  store ptr %41, ptr %44, align 8
  br label %45

45:                                               ; preds = %37, %26
  %46 = load ptr, ptr %3, align 8
  %47 = getelementptr inbounds nuw %struct.evhttp_request, ptr %46, i32 0, i32 0
  %48 = getelementptr inbounds nuw %struct.anon.8, ptr %47, i32 0, i32 0
  %49 = load ptr, ptr %48, align 8
  %50 = load ptr, ptr %3, align 8
  %51 = getelementptr inbounds nuw %struct.evhttp_request, ptr %50, i32 0, i32 0
  %52 = getelementptr inbounds nuw %struct.anon.8, ptr %51, i32 0, i32 1
  %53 = load ptr, ptr %52, align 8
  store ptr %49, ptr %53, align 8
  br label %54

54:                                               ; preds = %45
  br label %55

55:                                               ; preds = %54
  %56 = load ptr, ptr %3, align 8
  %57 = getelementptr inbounds nuw %struct.evhttp_request, ptr %56, i32 0, i32 1
  store ptr null, ptr %57, align 8
  %58 = load ptr, ptr %2, align 8
  %59 = getelementptr inbounds nuw %struct.evhttp_connection, ptr %58, i32 0, i32 17
  store i32 2, ptr %59, align 8
  %60 = load i32, ptr %6, align 4
  %61 = icmp ne i32 %60, 0
  br i1 %61, label %62, label %64

62:                                               ; preds = %55
  %63 = load ptr, ptr %2, align 8
  call void @evhttp_connection_reset_(ptr noundef %63, i32 noundef 1)
  br label %64

64:                                               ; preds = %62, %55
  %65 = load ptr, ptr %2, align 8
  %66 = getelementptr inbounds nuw %struct.evhttp_connection, ptr %65, i32 0, i32 19
  %67 = getelementptr inbounds nuw %struct.evcon_requestq, ptr %66, i32 0, i32 0
  %68 = load ptr, ptr %67, align 8
  %69 = icmp ne ptr %68, null
  br i1 %69, label %70, label %80

70:                                               ; preds = %64
  %71 = load ptr, ptr %2, align 8
  %72 = call i32 @evhttp_connected(ptr noundef %71)
  %73 = icmp ne i32 %72, 0
  br i1 %73, label %77, label %74

74:                                               ; preds = %70
  %75 = load ptr, ptr %2, align 8
  %76 = call i32 @evhttp_connection_connect_(ptr noundef %75)
  br label %79

77:                                               ; preds = %70
  %78 = load ptr, ptr %2, align 8
  call void @evhttp_request_dispatch(ptr noundef %78)
  br label %79

79:                                               ; preds = %77, %74
  br label %94

80:                                               ; preds = %64
  %81 = load i32, ptr %6, align 4
  %82 = icmp ne i32 %81, 0
  br i1 %82, label %85, label %83

83:                                               ; preds = %80
  %84 = load ptr, ptr %2, align 8
  call void @evhttp_connection_start_detectclose(ptr noundef %84)
  br label %93

85:                                               ; preds = %80
  %86 = load ptr, ptr %2, align 8
  %87 = getelementptr inbounds nuw %struct.evhttp_connection, ptr %86, i32 0, i32 10
  %88 = load i32, ptr %87, align 8
  %89 = and i32 %88, 1048576
  %90 = icmp ne i32 %89, 0
  br i1 %90, label %91, label %92

91:                                               ; preds = %85
  store i32 1, ptr %5, align 4
  br label %92

92:                                               ; preds = %91, %85
  br label %93

93:                                               ; preds = %92, %83
  br label %94

94:                                               ; preds = %93, %79
  call void @llvm.lifetime.end.p0(i64 4, ptr %6) #11
  br label %98

95:                                               ; preds = %1
  %96 = load ptr, ptr %2, align 8
  %97 = getelementptr inbounds nuw %struct.evhttp_connection, ptr %96, i32 0, i32 17
  store i32 7, ptr %97, align 8
  br label %98

98:                                               ; preds = %95, %94
  %99 = load ptr, ptr %3, align 8
  %100 = getelementptr inbounds nuw %struct.evhttp_request, ptr %99, i32 0, i32 22
  %101 = load ptr, ptr %100, align 8
  %102 = load ptr, ptr %3, align 8
  %103 = load ptr, ptr %3, align 8
  %104 = getelementptr inbounds nuw %struct.evhttp_request, ptr %103, i32 0, i32 23
  %105 = load ptr, ptr %104, align 8
  call void %101(ptr noundef %102, ptr noundef %105)
  %106 = load i32, ptr %4, align 4
  %107 = icmp ne i32 %106, 0
  br i1 %107, label %108, label %110

108:                                              ; preds = %98
  %109 = load ptr, ptr %3, align 8
  call void @evhttp_request_free_auto(ptr noundef %109)
  br label %110

110:                                              ; preds = %108, %98
  %111 = load i32, ptr %5, align 4
  %112 = icmp ne i32 %111, 0
  br i1 %112, label %113, label %121

113:                                              ; preds = %110
  %114 = load ptr, ptr %2, align 8
  %115 = getelementptr inbounds nuw %struct.evhttp_connection, ptr %114, i32 0, i32 19
  %116 = getelementptr inbounds nuw %struct.evcon_requestq, ptr %115, i32 0, i32 0
  %117 = load ptr, ptr %116, align 8
  %118 = icmp eq ptr %117, null
  br i1 %118, label %119, label %121

119:                                              ; preds = %113
  %120 = load ptr, ptr %2, align 8
  call void @evhttp_connection_free(ptr noundef %120)
  br label %121

121:                                              ; preds = %119, %113, %110
  call void @llvm.lifetime.end.p0(i64 4, ptr %5) #11
  call void @llvm.lifetime.end.p0(i64 4, ptr %4) #11
  call void @llvm.lifetime.end.p0(i64 8, ptr %3) #11
  ret void
}