; Function Attrs: nounwind uwtable
define internal fastcc void @evhttp_connection_done(ptr noundef initializes((280, 284)) %0) unnamed_addr #0 {
  %2 = getelementptr inbounds nuw i8, ptr %0, i64 296
  %3 = load ptr, ptr %2, align 8
  %4 = getelementptr inbounds nuw i8, ptr %0, i64 200
  %5 = load i32, ptr %4, align 8
  %6 = and i32 %5, 2
  %.not = icmp eq i32 %6, 0
  br i1 %.not, label %evhttp_request_free_auto.exit.thread, label %7

7:                                                ; preds = %1
  %8 = tail call fastcc i32 @evhttp_is_request_connection_close(ptr noundef %3)
  %9 = load ptr, ptr %3, align 8
  %.not31 = icmp eq ptr %9, null
  %10 = getelementptr inbounds nuw i8, ptr %3, i64 8
  %11 = load ptr, ptr %10, align 8
  br i1 %.not31, label %14, label %12

12:                                               ; preds = %7
  %13 = getelementptr inbounds nuw i8, ptr %9, i64 8
  store ptr %11, ptr %13, align 8
  br label %16

14:                                               ; preds = %7
  %15 = getelementptr inbounds nuw i8, ptr %0, i64 304
  store ptr %11, ptr %15, align 8
  br label %16

16:                                               ; preds = %14, %12
  %17 = load ptr, ptr %3, align 8
  store ptr %17, ptr %11, align 8
  %18 = getelementptr inbounds nuw i8, ptr %3, i64 16
  store ptr null, ptr %18, align 8
  %19 = getelementptr inbounds nuw i8, ptr %0, i64 280
  store i32 2, ptr %19, align 8
  %.not32 = icmp eq i32 %8, 0
  br i1 %.not32, label %20, label %.thread

20:                                               ; preds = %16
  %21 = load ptr, ptr %2, align 8
  %.not33 = icmp eq ptr %21, null
  br i1 %.not33, label %27, label %.thread45

.thread:                                          ; preds = %16
  tail call void @evhttp_connection_reset_(ptr noundef nonnull %0, i32 noundef 1)
  %22 = load ptr, ptr %2, align 8
  %.not3337 = icmp eq ptr %22, null
  br i1 %.not3337, label %33, label %23

23:                                               ; preds = %.thread
  %.val.pre = load i32, ptr %19, align 8
  %24 = icmp ult i32 %.val.pre, 2
  br i1 %24, label %25, label %.thread45

25:                                               ; preds = %23
  %26 = tail call i32 @evhttp_connection_connect_(ptr noundef nonnull %0)
  br label %41

.thread45:                                        ; preds = %20, %23
  tail call fastcc void @evhttp_request_dispatch(ptr noundef nonnull %0)
  br label %41

27:                                               ; preds = %20
  %28 = load i32, ptr %4, align 8
  %29 = or i32 %28, 4
  store i32 %29, ptr %4, align 8
  %30 = getelementptr inbounds nuw i8, ptr %0, i64 16
  %31 = load ptr, ptr %30, align 8
  %32 = tail call i32 @bufferevent_enable(ptr noundef %31, i16 noundef signext 2) #18
  br label %41

33:                                               ; preds = %.thread
  %34 = load i32, ptr %4, align 8
  %35 = and i32 %34, 1048576
  %.not34 = icmp eq i32 %35, 0
  br label %41

evhttp_request_free_auto.exit.thread:             ; preds = %1
  %36 = getelementptr inbounds nuw i8, ptr %0, i64 280
  store i32 7, ptr %36, align 8
  %37 = getelementptr inbounds nuw i8, ptr %3, i64 160
  %38 = load ptr, ptr %37, align 8
  %39 = getelementptr inbounds nuw i8, ptr %3, i64 168
  %40 = load ptr, ptr %39, align 8
  tail call void %38(ptr noundef %3, ptr noundef %40) #18
  br label %54

41:                                               ; preds = %33, %.thread45, %25, %27
  %.1.ph = phi i1 [ %.not34, %33 ], [ true, %27 ], [ true, %25 ], [ true, %.thread45 ]
  %42 = getelementptr inbounds nuw i8, ptr %3, i64 160
  %43 = load ptr, ptr %42, align 8
  %44 = getelementptr inbounds nuw i8, ptr %3, i64 168
  %45 = load ptr, ptr %44, align 8
  tail call void %43(ptr noundef nonnull %3, ptr noundef %45) #18
  %46 = getelementptr inbounds nuw i8, ptr %3, i64 24
  %47 = load i32, ptr %46, align 8
  %48 = and i32 %47, 4
  %.not.i = icmp eq i32 %48, 0
  br i1 %.not.i, label %49, label %evhttp_request_free_auto.exit

49:                                               ; preds = %41
  tail call void @evhttp_request_free(ptr noundef nonnull %3)
  br i1 %.1.ph, label %54, label %50

evhttp_request_free_auto.exit:                    ; preds = %41
  br i1 %.1.ph, label %54, label %50

50:                                               ; preds = %49, %evhttp_request_free_auto.exit
  %51 = load ptr, ptr %2, align 8
  %52 = icmp eq ptr %51, null
  br i1 %52, label %53, label %54

53:                                               ; preds = %50
  tail call void @evhttp_connection_free(ptr noundef nonnull %0)
  br label %54

54:                                               ; preds = %49, %evhttp_request_free_auto.exit.thread, %53, %50, %evhttp_request_free_auto.exit
  ret void
}